; Function Attrs: nounwind uwtable
define hidden range(i32 0, 2) i32 @_PyPegen_lookahead_with_string(i32 noundef %0, ptr noundef readonly captures(none) %1, ptr noundef %2, ptr noundef %3) local_unnamed_addr #1 {
  %5 = getelementptr inbounds nuw i8, ptr %2, i64 16
  %6 = load i32, ptr %5, align 8, !tbaa !33
  %7 = tail call ptr %1(ptr noundef %2, ptr noundef %3) #13
  store i32 %6, ptr %5, align 8, !tbaa !33
  %8 = icmp ne ptr %7, null
  %9 = zext i1 %8 to i32
  %10 = icmp eq i32 %0, %9
  %11 = zext i1 %10 to i32
  ret i32 %11
}